; Function Attrs: mustprogress nounwind uwtable
define hidden noundef ptr @_ZN15ClassListParser25find_builtin_class_helperEP10JavaThreadP6SymbolP7oopDesc(ptr nocapture noundef nonnull readnone align 8 dereferenceable(520) %0, ptr noundef %1, ptr noundef %2, ptr noundef %3) local_unnamed_addr #0 align 2 {
  %5 = icmp eq ptr %3, null
  br i1 %5, label %_ZN6HandleC2EP6ThreadP7oopDesc.exit, label %6

6:                                                ; preds = %4
  %7 = getelementptr inbounds i8, ptr %1, i64 808
  %8 = load ptr, ptr %7, align 8
  %9 = getelementptr inbounds i8, ptr %8, i64 40
  %10 = load ptr, ptr %9, align 8
  %11 = getelementptr inbounds i8, ptr %8, i64 32
  %12 = load ptr, ptr %11, align 8
  %13 = ptrtoint ptr %10 to i64
  %14 = ptrtoint ptr %12 to i64
  %15 = sub i64 %13, %14
  %.not.i.i.i.i = icmp ult i64 %15, 8
  br i1 %.not.i.i.i.i, label %18, label %16

16:                                               ; preds = %6
  %17 = getelementptr inbounds i8, ptr %12, i64 8
  store ptr %17, ptr %11, align 8
  br label %_ZN10HandleArea15allocate_handleEP7oopDesc.exit.i

18:                                               ; preds = %6
  %19 = tail call noundef ptr @_ZN5Arena4growEmN17AllocFailStrategy13AllocFailEnumE(ptr noundef nonnull align 8 dereferenceable(48) %8, i64 noundef 8, i32 noundef 0) #19
  br label %_ZN10HandleArea15allocate_handleEP7oopDesc.exit.i

_ZN10HandleArea15allocate_handleEP7oopDesc.exit.i: ; preds = %18, %16
  %.0.i.i.i.i = phi ptr [ %12, %16 ], [ %19, %18 ]
  store ptr %3, ptr %.0.i.i.i.i, align 8
  br label %_ZN6HandleC2EP6ThreadP7oopDesc.exit

_ZN6HandleC2EP6ThreadP7oopDesc.exit:              ; preds = %4, %_ZN10HandleArea15allocate_handleEP7oopDesc.exit.i
  %storemerge.i = phi ptr [ %.0.i.i.i.i, %_ZN10HandleArea15allocate_handleEP7oopDesc.exit.i ], [ null, %4 ]
  %20 = tail call noundef ptr @_ZN16SystemDictionary19find_instance_klassEP6ThreadP6Symbol6HandleS4_(ptr noundef %1, ptr noundef %2, ptr %storemerge.i, ptr null) #19
  ret ptr %20
}